; ModuleID = '46/1376.c'
source_filename = "46/1376.c"
target datalayout = "e-m:e-p270:32:32-p271:32:32-p272:64:64-i64:64-f80:128-n8:16:32:64-S128"
target triple = "x86_64-pc-linux-gnu"

@.str = private unnamed_addr constant [6 x i8] c"%d %d\00", align 1
@.str.1 = private unnamed_addr constant [3 x i8] c"%d\00", align 1
@.str.2 = private unnamed_addr constant [4 x i8] c"%d\0A\00", align 1

; Function Attrs: noinline nounwind uwtable
define dso_local i32 @main() #0 {
  %1 = alloca i32, align 4
  %2 = alloca [100 x [100 x i32]], align 16
  %3 = alloca i32, align 4
  %4 = alloca i32, align 4
  %5 = alloca i32, align 4
  %6 = alloca i32, align 4
  %7 = alloca i32, align 4
  %8 = alloca i32, align 4
  %9 = alloca i32, align 4
  %10 = alloca i32, align 4
  %11 = alloca i32, align 4
  %12 = alloca i32, align 4
  %13 = alloca i32, align 4
  %14 = alloca i32, align 4
  %15 = alloca i32, align 4
  %16 = alloca i32, align 4
  store i32 0, i32* %1, align 4
  %17 = call i32 (i8*, ...) @__isoc99_scanf(i8* getelementptr inbounds ([6 x i8], [6 x i8]* @.str, i64 0, i64 0), i32* %3, i32* %4)
  store i32 0, i32* %5, align 4
  br label %18

18:                                               ; preds = %39, %0
  %19 = load i32, i32* %5, align 4
  %20 = load i32, i32* %3, align 4
  %21 = icmp slt i32 %19, %20
  br i1 %21, label %22, label %42

22:                                               ; preds = %18
  store i32 0, i32* %6, align 4
  br label %23

23:                                               ; preds = %35, %22
  %24 = load i32, i32* %6, align 4
  %25 = load i32, i32* %4, align 4
  %26 = icmp slt i32 %24, %25
  br i1 %26, label %27, label %38

27:                                               ; preds = %23
  %28 = load i32, i32* %5, align 4
  %29 = sext i32 %28 to i64
  %30 = getelementptr inbounds [100 x [100 x i32]], [100 x [100 x i32]]* %2, i64 0, i64 %29
  %31 = load i32, i32* %6, align 4
  %32 = sext i32 %31 to i64
  %33 = getelementptr inbounds [100 x i32], [100 x i32]* %30, i64 0, i64 %32
  %34 = call i32 (i8*, ...) @__isoc99_scanf(i8* getelementptr inbounds ([3 x i8], [3 x i8]* @.str.1, i64 0, i64 0), i32* %33)
  br label %35

35:                                               ; preds = %27
  %36 = load i32, i32* %6, align 4
  %37 = add nsw i32 %36, 1
  store i32 %37, i32* %6, align 4
  br label %23

38:                                               ; preds = %23
  br label %39

39:                                               ; preds = %38
  %40 = load i32, i32* %5, align 4
  %41 = add nsw i32 %40, 1
  store i32 %41, i32* %5, align 4
  br label %18

42:                                               ; preds = %18
  store i32 0, i32* %11, align 4
  store i32 0, i32* %12, align 4
  %43 = load i32, i32* %3, align 4
  %44 = sub nsw i32 %43, 1
  store i32 %44, i32* %13, align 4
  %45 = load i32, i32* %4, align 4
  %46 = sub nsw i32 %45, 1
  store i32 %46, i32* %14, align 4
  br label %47

47:                                               ; preds = %171, %42
  %48 = load i32, i32* %11, align 4
  %49 = load i32, i32* %13, align 4
  %50 = icmp sle i32 %48, %49
  br i1 %50, label %51, label %55

51:                                               ; preds = %47
  %52 = load i32, i32* %12, align 4
  %53 = load i32, i32* %14, align 4
  %54 = icmp sle i32 %52, %53
  br label %55

55:                                               ; preds = %51, %47
  %56 = phi i1 [ false, %47 ], [ %54, %51 ]
  br i1 %56, label %57, label %180

57:                                               ; preds = %55
  %58 = load i32, i32* %11, align 4
  %59 = load i32, i32* %13, align 4
  %60 = icmp ne i32 %58, %59
  br i1 %60, label %61, label %142

61:                                               ; preds = %57
  %62 = load i32, i32* %14, align 4
  %63 = load i32, i32* %12, align 4
  %64 = icmp ne i32 %62, %63
  br i1 %64, label %65, label %142

65:                                               ; preds = %61
  %66 = load i32, i32* %12, align 4
  store i32 %66, i32* %7, align 4
  br label %67

67:                                               ; preds = %81, %65
  %68 = load i32, i32* %7, align 4
  %69 = load i32, i32* %14, align 4
  %70 = sub nsw i32 %69, 1
  %71 = icmp sle i32 %68, %70
  br i1 %71, label %72, label %84

72:                                               ; preds = %67
  %73 = load i32, i32* %11, align 4
  %74 = sext i32 %73 to i64
  %75 = getelementptr inbounds [100 x [100 x i32]], [100 x [100 x i32]]* %2, i64 0, i64 %74
  %76 = load i32, i32* %7, align 4
  %77 = sext i32 %76 to i64
  %78 = getelementptr inbounds [100 x i32], [100 x i32]* %75, i64 0, i64 %77
  %79 = load i32, i32* %78, align 4
  %80 = call i32 (i8*, ...) @printf(i8* getelementptr inbounds ([4 x i8], [4 x i8]* @.str.2, i64 0, i64 0), i32 %79)
  br label %81

81:                                               ; preds = %72
  %82 = load i32, i32* %7, align 4
  %83 = add nsw i32 %82, 1
  store i32 %83, i32* %7, align 4
  br label %67

84:                                               ; preds = %67
  %85 = load i32, i32* %11, align 4
  store i32 %85, i32* %8, align 4
  br label %86

86:                                               ; preds = %100, %84
  %87 = load i32, i32* %8, align 4
  %88 = load i32, i32* %13, align 4
  %89 = sub nsw i32 %88, 1
  %90 = icmp sle i32 %87, %89
  br i1 %90, label %91, label %103

91:                                               ; preds = %86
  %92 = load i32, i32* %8, align 4
  %93 = sext i32 %92 to i64
  %94 = getelementptr inbounds [100 x [100 x i32]], [100 x [100 x i32]]* %2, i64 0, i64 %93
  %95 = load i32, i32* %14, align 4
  %96 = sext i32 %95 to i64
  %97 = getelementptr inbounds [100 x i32], [100 x i32]* %94, i64 0, i64 %96
  %98 = load i32, i32* %97, align 4
  %99 = call i32 (i8*, ...) @printf(i8* getelementptr inbounds ([4 x i8], [4 x i8]* @.str.2, i64 0, i64 0), i32 %98)
  br label %100

100:                                              ; preds = %91
  %101 = load i32, i32* %8, align 4
  %102 = add nsw i32 %101, 1
  store i32 %102, i32* %8, align 4
  br label %86

103:                                              ; preds = %86
  %104 = load i32, i32* %14, align 4
  store i32 %104, i32* %9, align 4
  br label %105

105:                                              ; preds = %119, %103
  %106 = load i32, i32* %9, align 4
  %107 = load i32, i32* %12, align 4
  %108 = add nsw i32 %107, 1
  %109 = icmp sge i32 %106, %108
  br i1 %109, label %110, label %122

110:                                              ; preds = %105
  %111 = load i32, i32* %13, align 4
  %112 = sext i32 %111 to i64
  %113 = getelementptr inbounds [100 x [100 x i32]], [100 x [100 x i32]]* %2, i64 0, i64 %112
  %114 = load i32, i32* %9, align 4
  %115 = sext i32 %114 to i64
  %116 = getelementptr inbounds [100 x i32], [100 x i32]* %113, i64 0, i64 %115
  %117 = load i32, i32* %116, align 4
  %118 = call i32 (i8*, ...) @printf(i8* getelementptr inbounds ([4 x i8], [4 x i8]* @.str.2, i64 0, i64 0), i32 %117)
  br label %119

119:                                              ; preds = %110
  %120 = load i32, i32* %9, align 4
  %121 = add nsw i32 %120, -1
  store i32 %121, i32* %9, align 4
  br label %105

122:                                              ; preds = %105
  %123 = load i32, i32* %13, align 4
  store i32 %123, i32* %10, align 4
  br label %124

124:                                              ; preds = %138, %122
  %125 = load i32, i32* %10, align 4
  %126 = load i32, i32* %11, align 4
  %127 = add nsw i32 %126, 1
  %128 = icmp sge i32 %125, %127
  br i1 %128, label %129, label %141

129:                                              ; preds = %124
  %130 = load i32, i32* %10, align 4
  %131 = sext i32 %130 to i64
  %132 = getelementptr inbounds [100 x [100 x i32]], [100 x [100 x i32]]* %2, i64 0, i64 %131
  %133 = load i32, i32* %12, align 4
  %134 = sext i32 %133 to i64
  %135 = getelementptr inbounds [100 x i32], [100 x i32]* %132, i64 0, i64 %134
  %136 = load i32, i32* %135, align 4
  %137 = call i32 (i8*, ...) @printf(i8* getelementptr inbounds ([4 x i8], [4 x i8]* @.str.2, i64 0, i64 0), i32 %136)
  br label %138

138:                                              ; preds = %129
  %139 = load i32, i32* %10, align 4
  %140 = add nsw i32 %139, -1
  store i32 %140, i32* %10, align 4
  br label %124

141:                                              ; preds = %124
  br label %171

142:                                              ; preds = %61, %57
  %143 = load i32, i32* %11, align 4
  store i32 %143, i32* %15, align 4
  br label %144

144:                                              ; preds = %167, %142
  %145 = load i32, i32* %15, align 4
  %146 = load i32, i32* %13, align 4
  %147 = icmp sle i32 %145, %146
  br i1 %147, label %148, label %170

148:                                              ; preds = %144
  %149 = load i32, i32* %12, align 4
  store i32 %149, i32* %16, align 4
  br label %150

150:                                              ; preds = %163, %148
  %151 = load i32, i32* %16, align 4
  %152 = load i32, i32* %14, align 4
  %153 = icmp sle i32 %151, %152
  br i1 %153, label %154, label %166

154:                                              ; preds = %150
  %155 = load i32, i32* %15, align 4
  %156 = sext i32 %155 to i64
  %157 = getelementptr inbounds [100 x [100 x i32]], [100 x [100 x i32]]* %2, i64 0, i64 %156
  %158 = load i32, i32* %16, align 4
  %159 = sext i32 %158 to i64
  %160 = getelementptr inbounds [100 x i32], [100 x i32]* %157, i64 0, i64 %159
  %161 = load i32, i32* %160, align 4
  %162 = call i32 (i8*, ...) @printf(i8* getelementptr inbounds ([4 x i8], [4 x i8]* @.str.2, i64 0, i64 0), i32 %161)
  br label %163

163:                                              ; preds = %154
  %164 = load i32, i32* %16, align 4
  %165 = add nsw i32 %164, 1
  store i32 %165, i32* %16, align 4
  br label %150

166:                                              ; preds = %150
  br label %167

167:                                              ; preds = %166
  %168 = load i32, i32* %15, align 4
  %169 = add nsw i32 %168, 1
  store i32 %169, i32* %15, align 4
  br label %144

170:                                              ; preds = %144
  br label %171

171:                                              ; preds = %170, %141
  %172 = load i32, i32* %11, align 4
  %173 = add nsw i32 %172, 1
  store i32 %173, i32* %11, align 4
  %174 = load i32, i32* %12, align 4
  %175 = add nsw i32 %174, 1
  store i32 %175, i32* %12, align 4
  %176 = load i32, i32* %13, align 4
  %177 = add nsw i32 %176, -1
  store i32 %177, i32* %13, align 4
  %178 = load i32, i32* %14, align 4
  %179 = add nsw i32 %178, -1
  store i32 %179, i32* %14, align 4
  br label %47

180:                                              ; preds = %55
  ret i32 0
}

declare dso_local i32 @__isoc99_scanf(i8*, ...) #1

declare dso_local i32 @printf(i8*, ...) #1


!llvm.module.flags = !{!0}
!llvm.ident = !{!1}

!0 = !{i32 1, !"wchar_size", i32 4}
!1 = !{!"clang version 10.0.0-4ubuntu1 "}
